target datalayout = "e-m:e-p270:32:32-p271:32:32-p272:64:64-i64:64-i128:128-f80:128-n8:16:32:64-S128"
target triple = "x86_64-pc-linux-gnu"

%struct.varattrib_1b = type { i8, [0 x i8] }
%struct.varattrib_1b_e = type { i8, i8, [0 x i8] }

; Function Attrs: inlinehint nounwind uwtable
define internal ptr @DatumGetPointer(i64 noundef %0) #2 {
  %2 = alloca i64, align 8
  store i64 %0, ptr %2, align 8
  %3 = load i64, ptr %2, align 8
  %4 = inttoptr i64 %3 to ptr
  ret ptr %4
}

; Function Attrs: nounwind uwtable
define dso_local void @datumSerialize(i64 noundef %0, i1 noundef zeroext %1, i1 noundef zeroext %2, i32 noundef %3, ptr noundef %4) #0 {
  %6 = alloca i64, align 8
  %7 = alloca i8, align 1
  %8 = alloca i8, align 1
  %9 = alloca i32, align 4
  %10 = alloca ptr, align 8
  %11 = alloca ptr, align 8
  %12 = alloca i32, align 4
  %13 = alloca ptr, align 8
  store i64 %0, ptr %6, align 8
  %14 = zext i1 %1 to i8
  store i8 %14, ptr %7, align 1
  %15 = zext i1 %2 to i8
  store i8 %15, ptr %8, align 1
  store i32 %3, ptr %9, align 4
  store ptr %4, ptr %10, align 8
  call void @llvm.lifetime.start.p0(i64 8, ptr %11) #7
  store ptr null, ptr %11, align 8
  call void @llvm.lifetime.start.p0(i64 4, ptr %12) #7
  %16 = load i8, ptr %7, align 1, !range !4, !noundef !5
  %17 = trunc i8 %16 to i1
  br i1 %17, label %18, label %19

18:                                               ; preds = %5
  store i32 -2, ptr %12, align 4
  br label %56

19:                                               ; preds = %5
  %20 = load i8, ptr %8, align 1, !range !4, !noundef !5
  %21 = trunc i8 %20 to i1
  br i1 %21, label %22, label %23

22:                                               ; preds = %19
  store i32 -1, ptr %12, align 4
  br label %55

23:                                               ; preds = %19
  %24 = load i32, ptr %9, align 4
  %25 = icmp eq i32 %24, -1
  br i1 %25, label %26, label %47

26:                                               ; preds = %23
  %27 = load i64, ptr %6, align 8
  %28 = call ptr @DatumGetPointer(i64 noundef %27)
  %29 = getelementptr inbounds nuw %struct.varattrib_1b, ptr %28, i32 0, i32 0
  %30 = load i8, ptr %29, align 1
  %31 = zext i8 %30 to i32
  %32 = icmp eq i32 %31, 1
  br i1 %32, label %33, label %47

33:                                               ; preds = %26
  %34 = load i64, ptr %6, align 8
  %35 = call ptr @DatumGetPointer(i64 noundef %34)
  %36 = getelementptr inbounds nuw %struct.varattrib_1b_e, ptr %35, i32 0, i32 1
  %37 = load i8, ptr %36, align 1
  %38 = zext i8 %37 to i32
  %39 = and i32 %38, -2
  %40 = icmp eq i32 %39, 2
  br i1 %40, label %41, label %47

41:                                               ; preds = %33
  %42 = load i64, ptr %6, align 8
  %43 = call ptr @DatumGetEOHP(i64 noundef %42)
  store ptr %43, ptr %11, align 8
  %44 = load ptr, ptr %11, align 8
  %45 = call i64 @EOH_get_flat_size(ptr noundef %44)
  %46 = trunc i64 %45 to i32
  store i32 %46, ptr %12, align 4
  br label %54

47:                                               ; preds = %33, %26, %23
  %48 = load i64, ptr %6, align 8
  %49 = load i8, ptr %8, align 1, !range !4, !noundef !5
  %50 = trunc i8 %49 to i1
  %51 = load i32, ptr %9, align 4
  %52 = call i64 @datumGetSize(i64 noundef %48, i1 noundef zeroext %50, i32 noundef %51)
  %53 = trunc i64 %52 to i32
  store i32 %53, ptr %12, align 4
  br label %54

54:                                               ; preds = %47, %41
  br label %55

55:                                               ; preds = %54, %22
  br label %56

56:                                               ; preds = %55, %18
  %57 = load ptr, ptr %10, align 8
  %58 = load ptr, ptr %57, align 8
  call void @llvm.memcpy.p0.p0.i64(ptr align 1 %58, ptr align 4 %12, i64 4, i1 false)
  %59 = load ptr, ptr %10, align 8
  %60 = load ptr, ptr %59, align 8
  %61 = getelementptr inbounds nuw i8, ptr %60, i64 4
  store ptr %61, ptr %59, align 8
  %62 = load i8, ptr %7, align 1, !range !4, !noundef !5
  %63 = trunc i8 %62 to i1
  br i1 %63, label %109, label %64

64:                                               ; preds = %56
  %65 = load i8, ptr %8, align 1, !range !4, !noundef !5
  %66 = trunc i8 %65 to i1
  br i1 %66, label %67, label %73

67:                                               ; preds = %64
  %68 = load ptr, ptr %10, align 8
  %69 = load ptr, ptr %68, align 8
  call void @llvm.memcpy.p0.p0.i64(ptr align 1 %69, ptr align 8 %6, i64 8, i1 false)
  %70 = load ptr, ptr %10, align 8
  %71 = load ptr, ptr %70, align 8
  %72 = getelementptr inbounds nuw i8, ptr %71, i64 8
  store ptr %72, ptr %70, align 8
  br label %108

73:                                               ; preds = %64
  %74 = load ptr, ptr %11, align 8
  %75 = icmp ne ptr %74, null
  br i1 %75, label %76, label %95

76:                                               ; preds = %73
  call void @llvm.lifetime.start.p0(i64 8, ptr %13) #7
  %77 = load i32, ptr %12, align 4
  %78 = sext i32 %77 to i64
  %79 = call ptr @palloc(i64 noundef %78)
  store ptr %79, ptr %13, align 8
  %80 = load ptr, ptr %11, align 8
  %81 = load ptr, ptr %13, align 8
  %82 = load i32, ptr %12, align 4
  %83 = sext i32 %82 to i64
  call void @EOH_flatten_into(ptr noundef %80, ptr noundef %81, i64 noundef %83)
  %84 = load ptr, ptr %10, align 8
  %85 = load ptr, ptr %84, align 8
  %86 = load ptr, ptr %13, align 8
  %87 = load i32, ptr %12, align 4
  %88 = sext i32 %87 to i64
  call void @llvm.memcpy.p0.p0.i64(ptr align 1 %85, ptr align 1 %86, i64 %88, i1 false)
  %89 = load i32, ptr %12, align 4
  %90 = load ptr, ptr %10, align 8
  %91 = load ptr, ptr %90, align 8
  %92 = sext i32 %89 to i64
  %93 = getelementptr inbounds i8, ptr %91, i64 %92
  store ptr %93, ptr %90, align 8
  %94 = load ptr, ptr %13, align 8
  call void @pfree(ptr noundef %94)
  call void @llvm.lifetime.end.p0(i64 8, ptr %13) #7
  br label %107

95:                                               ; preds = %73
  %96 = load ptr, ptr %10, align 8
  %97 = load ptr, ptr %96, align 8
  %98 = load i64, ptr %6, align 8
  %99 = call ptr @DatumGetPointer(i64 noundef %98)
  %100 = load i32, ptr %12, align 4
  %101 = sext i32 %100 to i64
  call void @llvm.memcpy.p0.p0.i64(ptr align 1 %97, ptr align 1 %99, i64 %101, i1 false)
  %102 = load i32, ptr %12, align 4
  %103 = load ptr, ptr %10, align 8
  %104 = load ptr, ptr %103, align 8
  %105 = sext i32 %102 to i64
  %106 = getelementptr inbounds i8, ptr %104, i64 %105
  store ptr %106, ptr %103, align 8
  br label %107

107:                                              ; preds = %95, %76
  br label %108

108:                                              ; preds = %107, %67
  br label %109

109:                                              ; preds = %108, %56
  call void @llvm.lifetime.end.p0(i64 4, ptr %12) #7
  call void @llvm.lifetime.end.p0(i64 8, ptr %11) #7
  ret void
}