; Function Attrs: nounwind uwtable
define dso_local void @datumSerialize(i64 noundef %0, i1 noundef zeroext %1, i1 noundef zeroext %2, i32 noundef %3, ptr noundef captures(none) %4) local_unnamed_addr #0 {
  %brmerge = or i1 %1, %2
  %.mux = select i1 %1, i32 -2, i32 -1
  br i1 %brmerge, label %24, label %6

6:                                                ; preds = %5
  %7 = icmp eq i32 %3, -1
  br i1 %7, label %8, label %21

8:                                                ; preds = %6
  %9 = inttoptr i64 %0 to ptr
  %10 = load i8, ptr %9, align 1
  %11 = icmp eq i8 %10, 1
  br i1 %11, label %12, label %21

12:                                               ; preds = %8
  %13 = getelementptr inbounds nuw i8, ptr %9, i64 1
  %14 = load i8, ptr %13, align 1
  %15 = and i8 %14, -2
  %16 = icmp eq i8 %15, 2
  br i1 %16, label %17, label %21

17:                                               ; preds = %12
  %18 = tail call ptr @DatumGetEOHP(i64 noundef %0) #9
  %19 = tail call i64 @EOH_get_flat_size(ptr noundef %18) #9
  %20 = trunc i64 %19 to i32
  br label %24

21:                                               ; preds = %12, %8, %6
  %22 = tail call i64 @datumGetSize(i64 noundef %0, i1 noundef zeroext false, i32 noundef %3)
  %23 = trunc i64 %22 to i32
  br label %24

24:                                               ; preds = %5, %21, %17
  %.032 = phi i32 [ %20, %17 ], [ %23, %21 ], [ %.mux, %5 ]
  %.0 = phi ptr [ %18, %17 ], [ null, %21 ], [ null, %5 ]
  %25 = load ptr, ptr %4, align 8
  store i32 %.032, ptr %25, align 1
  %26 = load ptr, ptr %4, align 8
  %27 = getelementptr inbounds nuw i8, ptr %26, i64 4
  store ptr %27, ptr %4, align 8
  br i1 %1, label %44, label %28

28:                                               ; preds = %24
  br i1 %2, label %29, label %32

29:                                               ; preds = %28
  store i64 %0, ptr %27, align 1
  %30 = load ptr, ptr %4, align 8
  %31 = getelementptr inbounds nuw i8, ptr %30, i64 8
  store ptr %31, ptr %4, align 8
  br label %44

32:                                               ; preds = %28
  %.not = icmp eq ptr %.0, null
  br i1 %.not, label %39, label %33

33:                                               ; preds = %32
  %34 = sext i32 %.032 to i64
  %35 = tail call ptr @palloc(i64 noundef %34) #9
  tail call void @EOH_flatten_into(ptr noundef nonnull %.0, ptr noundef %35, i64 noundef %34) #9
  %36 = load ptr, ptr %4, align 8
  tail call void @llvm.memcpy.p0.p0.i64(ptr align 1 %36, ptr align 1 %35, i64 %34, i1 false)
  %37 = load ptr, ptr %4, align 8
  %38 = getelementptr inbounds i8, ptr %37, i64 %34
  store ptr %38, ptr %4, align 8
  tail call void @pfree(ptr noundef %35) #9
  br label %44

39:                                               ; preds = %32
  %40 = inttoptr i64 %0 to ptr
  %41 = sext i32 %.032 to i64
  tail call void @llvm.memcpy.p0.p0.i64(ptr nonnull align 1 %27, ptr align 1 %40, i64 %41, i1 false)
  %42 = load ptr, ptr %4, align 8
  %43 = getelementptr inbounds i8, ptr %42, i64 %41
  store ptr %43, ptr %4, align 8
  br label %44

44:                                               ; preds = %29, %39, %33, %24
  ret void
}